target datalayout = "e-m:e-p270:32:32-p271:32:32-p272:64:64-i64:64-i128:128-f80:128-n8:16:32:64-S128"
target triple = "x86_64-pc-linux-gnu"

@.str = private unnamed_addr constant [3 x i8] c"//\00", align 1
@.str.2 = private unnamed_addr constant [123 x i8] c"%s Copyright (C) %d and later: Unicode, Inc. and others.\0A%s License & terms of use: http://www.unicode.org/copyright.html\0A\00", align 1
@.str.3 = private unnamed_addr constant [110 x i8] c"%s Copyright (C) 1999-2016, International Business Machines\0A%s Corporation and others.  All Rights Reserved.\0A\00", align 1
@.str.4 = private unnamed_addr constant [53 x i8] c"%s\0A%s file name: %s\0A%s\0A%s machine-generated by: %s\0A\0A\00", align 1
@.str.5 = private unnamed_addr constant [9 x i8] c"%Y-%m-%d\00", align 1
@stderr = external global ptr, align 8
@.str.10 = private unnamed_addr constant [1 x i8] zeroinitializer, align 1
@.str.41 = private unnamed_addr constant [2 x i8] c"w\00", align 1
@.str.42 = private unnamed_addr constant [44 x i8] c"usrc_create(%s, %s): unable to create file\0A\00", align 1

; Function Attrs: mustprogress nounwind uwtable
define void @usrc_writeFileNameGeneratedBy(ptr noundef %0, ptr noundef %1, ptr noundef %2, ptr noundef %3) #0 {
  %5 = alloca ptr, align 8
  %6 = alloca ptr, align 8
  %7 = alloca ptr, align 8
  %8 = alloca ptr, align 8
  %9 = alloca [1024 x i8], align 16
  %10 = alloca ptr, align 8
  %11 = alloca i64, align 8
  %12 = alloca ptr, align 8
  store ptr %0, ptr %5, align 8, !tbaa !25
  store ptr %1, ptr %6, align 8, !tbaa !17
  store ptr %2, ptr %7, align 8, !tbaa !17
  store ptr %3, ptr %8, align 8, !tbaa !17
  call void @llvm.lifetime.start.p0(i64 1024, ptr %9) #16
  call void @llvm.lifetime.start.p0(i64 8, ptr %10) #16
  call void @llvm.lifetime.start.p0(i64 8, ptr %11) #16
  call void @llvm.lifetime.start.p0(i64 8, ptr %12) #16
  store ptr @.str.4, ptr %12, align 8, !tbaa !17
  %13 = call i64 @time(ptr noundef %11) #16
  %14 = call ptr @localtime(ptr noundef %11) #16
  store ptr %14, ptr %10, align 8, !tbaa !28
  %15 = load ptr, ptr %8, align 8, !tbaa !17
  %16 = icmp eq ptr %15, null
  br i1 %16, label %17, label %30

17:                                               ; preds = %4
  %18 = getelementptr inbounds [1024 x i8], ptr %9, i64 0, i64 0
  %19 = load ptr, ptr %10, align 8, !tbaa !28
  %20 = call i64 @strftime(ptr noundef %18, i64 noundef 1024, ptr noundef @.str.5, ptr noundef %19) #16
  %21 = load ptr, ptr %5, align 8, !tbaa !25
  %22 = load ptr, ptr %12, align 8, !tbaa !17
  %23 = load ptr, ptr %6, align 8, !tbaa !17
  %24 = load ptr, ptr %6, align 8, !tbaa !17
  %25 = load ptr, ptr %7, align 8, !tbaa !17
  %26 = load ptr, ptr %6, align 8, !tbaa !17
  %27 = load ptr, ptr %6, align 8, !tbaa !17
  %28 = getelementptr inbounds [1024 x i8], ptr %9, i64 0, i64 0
  %29 = call i32 (ptr, ptr, ...) @fprintf(ptr noundef %21, ptr noundef %22, ptr noundef %23, ptr noundef %24, ptr noundef %25, ptr noundef %26, ptr noundef %27, ptr noundef %28) #16
  br label %40

30:                                               ; preds = %4
  %31 = load ptr, ptr %5, align 8, !tbaa !25
  %32 = load ptr, ptr %12, align 8, !tbaa !17
  %33 = load ptr, ptr %6, align 8, !tbaa !17
  %34 = load ptr, ptr %6, align 8, !tbaa !17
  %35 = load ptr, ptr %7, align 8, !tbaa !17
  %36 = load ptr, ptr %6, align 8, !tbaa !17
  %37 = load ptr, ptr %6, align 8, !tbaa !17
  %38 = load ptr, ptr %8, align 8, !tbaa !17
  %39 = call i32 (ptr, ptr, ...) @fprintf(ptr noundef %31, ptr noundef %32, ptr noundef %33, ptr noundef %34, ptr noundef %35, ptr noundef %36, ptr noundef %37, ptr noundef %38) #16
  br label %40

40:                                               ; preds = %30, %17
  call void @llvm.lifetime.end.p0(i64 8, ptr %12) #16
  call void @llvm.lifetime.end.p0(i64 8, ptr %11) #16
  call void @llvm.lifetime.end.p0(i64 8, ptr %10) #16
  call void @llvm.lifetime.end.p0(i64 1024, ptr %9) #16
  ret void
}

; Function Attrs: mustprogress nounwind uwtable
define void @usrc_writeCopyrightHeader(ptr noundef %0, ptr noundef %1, i32 noundef %2) #0 {
  %4 = alloca ptr, align 8
  %5 = alloca ptr, align 8
  %6 = alloca i32, align 4
  store ptr %0, ptr %4, align 8, !tbaa !25
  store ptr %1, ptr %5, align 8, !tbaa !17
  store i32 %2, ptr %6, align 4, !tbaa !14
  %7 = load ptr, ptr %4, align 8, !tbaa !25
  %8 = load ptr, ptr %5, align 8, !tbaa !17
  %9 = load i32, ptr %6, align 4, !tbaa !14
  %10 = load ptr, ptr %5, align 8, !tbaa !17
  %11 = call i32 (ptr, ptr, ...) @fprintf(ptr noundef %7, ptr noundef @.str.2, ptr noundef %8, i32 noundef %9, ptr noundef %10) #16
  %12 = load i32, ptr %6, align 4, !tbaa !14
  %13 = icmp sle i32 %12, 2016
  br i1 %13, label %14, label %19

14:                                               ; preds = %3
  %15 = load ptr, ptr %4, align 8, !tbaa !25
  %16 = load ptr, ptr %5, align 8, !tbaa !17
  %17 = load ptr, ptr %5, align 8, !tbaa !17
  %18 = call i32 (ptr, ptr, ...) @fprintf(ptr noundef %15, ptr noundef @.str.3, ptr noundef %16, ptr noundef %17) #16
  br label %19

19:                                               ; preds = %14, %3
  ret void
}

; Function Attrs: mustprogress uwtable
define internal noundef ptr @_ZL24usrc_createWithoutHeaderPKcS0_(ptr noundef %0, ptr noundef %1) #1 {
  %3 = alloca ptr, align 8
  %4 = alloca ptr, align 8
  %5 = alloca [1024 x i8], align 16
  %6 = alloca ptr, align 8
  %7 = alloca ptr, align 8
  %8 = alloca ptr, align 8
  %9 = alloca i8, align 1
  store ptr %0, ptr %3, align 8, !tbaa !17
  store ptr %1, ptr %4, align 8, !tbaa !17
  call void @llvm.lifetime.start.p0(i64 1024, ptr %5) #16
  call void @llvm.lifetime.start.p0(i64 8, ptr %6) #16
  call void @llvm.lifetime.start.p0(i64 8, ptr %7) #16
  call void @llvm.lifetime.start.p0(i64 8, ptr %8) #16
  call void @llvm.lifetime.start.p0(i64 1, ptr %9) #16
  %10 = load ptr, ptr %3, align 8, !tbaa !17
  %11 = icmp eq ptr %10, null
  br i1 %11, label %12, label %14

12:                                               ; preds = %2
  %13 = load ptr, ptr %4, align 8, !tbaa !17
  store ptr %13, ptr %6, align 8, !tbaa !17
  br label %43

14:                                               ; preds = %2
  %15 = getelementptr inbounds [1024 x i8], ptr %5, i64 0, i64 0
  %16 = load ptr, ptr %3, align 8, !tbaa !17
  %17 = call ptr @strcpy(ptr noundef %15, ptr noundef %16) #16
  %18 = getelementptr inbounds [1024 x i8], ptr %5, i64 0, i64 0
  %19 = getelementptr inbounds [1024 x i8], ptr %5, i64 0, i64 0
  %20 = call i64 @strlen(ptr noundef %19) #19
  %21 = getelementptr inbounds nuw i8, ptr %18, i64 %20
  store ptr %21, ptr %7, align 8, !tbaa !17
  %22 = load ptr, ptr %7, align 8, !tbaa !17
  %23 = getelementptr inbounds [1024 x i8], ptr %5, i64 0, i64 0
  %24 = icmp ugt ptr %22, %23
  br i1 %24, label %25, label %38

25:                                               ; preds = %14
  %26 = load ptr, ptr %7, align 8, !tbaa !17
  %27 = getelementptr inbounds i8, ptr %26, i64 -1
  %28 = load i8, ptr %27, align 1, !tbaa !27
  store i8 %28, ptr %9, align 1, !tbaa !27
  %29 = sext i8 %28 to i32
  %30 = icmp ne i32 %29, 47
  br i1 %30, label %31, label %38

31:                                               ; preds = %25
  %32 = load i8, ptr %9, align 1, !tbaa !27
  %33 = sext i8 %32 to i32
  %34 = icmp ne i32 %33, 47
  br i1 %34, label %35, label %38

35:                                               ; preds = %31
  %36 = load ptr, ptr %7, align 8, !tbaa !17
  %37 = getelementptr inbounds nuw i8, ptr %36, i32 1
  store ptr %37, ptr %7, align 8, !tbaa !17
  store i8 47, ptr %36, align 1, !tbaa !27
  br label %38

38:                                               ; preds = %35, %31, %25, %14
  %39 = load ptr, ptr %7, align 8, !tbaa !17
  %40 = load ptr, ptr %4, align 8, !tbaa !17
  %41 = call ptr @strcpy(ptr noundef %39, ptr noundef %40) #16
  %42 = getelementptr inbounds [1024 x i8], ptr %5, i64 0, i64 0
  store ptr %42, ptr %6, align 8, !tbaa !17
  br label %43

43:                                               ; preds = %38, %12
  %44 = load ptr, ptr %6, align 8, !tbaa !17
  %45 = call noalias ptr @fopen(ptr noundef %44, ptr noundef @.str.41)
  store ptr %45, ptr %8, align 8, !tbaa !25
  %46 = load ptr, ptr %8, align 8, !tbaa !25
  %47 = icmp eq ptr %46, null
  br i1 %47, label %48, label %59

48:                                               ; preds = %43
  %49 = load ptr, ptr @stderr, align 8, !tbaa !25
  %50 = load ptr, ptr %3, align 8, !tbaa !17
  %51 = icmp ne ptr %50, null
  br i1 %51, label %52, label %54

52:                                               ; preds = %48
  %53 = load ptr, ptr %3, align 8, !tbaa !17
  br label %55

54:                                               ; preds = %48
  br label %55

55:                                               ; preds = %54, %52
  %56 = phi ptr [ %53, %52 ], [ @.str.10, %54 ]
  %57 = load ptr, ptr %4, align 8, !tbaa !17
  %58 = call i32 (ptr, ptr, ...) @fprintf(ptr noundef %49, ptr noundef @.str.42, ptr noundef %56, ptr noundef %57) #16
  br label %59

59:                                               ; preds = %55, %43
  %60 = load ptr, ptr %8, align 8, !tbaa !25
  call void @llvm.lifetime.end.p0(i64 1, ptr %9) #16
  call void @llvm.lifetime.end.p0(i64 8, ptr %8) #16
  call void @llvm.lifetime.end.p0(i64 8, ptr %7) #16
  call void @llvm.lifetime.end.p0(i64 8, ptr %6) #16
  call void @llvm.lifetime.end.p0(i64 1024, ptr %5) #16
  ret ptr %60
}

; Function Attrs: mustprogress uwtable
define ptr @usrc_create(ptr noundef %0, ptr noundef %1, i32 noundef %2, ptr noundef %3) #1 {
  %5 = alloca ptr, align 8
  %6 = alloca ptr, align 8
  %7 = alloca ptr, align 8
  %8 = alloca i32, align 4
  %9 = alloca ptr, align 8
  %10 = alloca ptr, align 8
  %11 = alloca i32, align 4
  store ptr %0, ptr %6, align 8, !tbaa !17
  store ptr %1, ptr %7, align 8, !tbaa !17
  store i32 %2, ptr %8, align 4, !tbaa !14
  store ptr %3, ptr %9, align 8, !tbaa !17
  call void @llvm.lifetime.start.p0(i64 8, ptr %10) #16
  %12 = load ptr, ptr %6, align 8, !tbaa !17
  %13 = load ptr, ptr %7, align 8, !tbaa !17
  %14 = call noundef ptr @_ZL24usrc_createWithoutHeaderPKcS0_(ptr noundef %12, ptr noundef %13)
  store ptr %14, ptr %10, align 8, !tbaa !25
  %15 = load ptr, ptr %10, align 8, !tbaa !25
  %16 = icmp eq ptr %15, null
  br i1 %16, label %17, label %19

17:                                               ; preds = %4
  %18 = load ptr, ptr %10, align 8, !tbaa !25
  store ptr %18, ptr %5, align 8
  store i32 1, ptr %11, align 4
  br label %26

19:                                               ; preds = %4
  %20 = load ptr, ptr %10, align 8, !tbaa !25
  %21 = load i32, ptr %8, align 4, !tbaa !14
  call void @usrc_writeCopyrightHeader(ptr noundef %20, ptr noundef @.str, i32 noundef %21)
  %22 = load ptr, ptr %10, align 8, !tbaa !25
  %23 = load ptr, ptr %7, align 8, !tbaa !17
  %24 = load ptr, ptr %9, align 8, !tbaa !17
  call void @usrc_writeFileNameGeneratedBy(ptr noundef %22, ptr noundef @.str, ptr noundef %23, ptr noundef %24)
  %25 = load ptr, ptr %10, align 8, !tbaa !25
  store ptr %25, ptr %5, align 8
  store i32 1, ptr %11, align 4
  br label %26

26:                                               ; preds = %19, %17
  call void @llvm.lifetime.end.p0(i64 8, ptr %10) #16
  %27 = load ptr, ptr %5, align 8
  ret ptr %27
}