; Function Attrs: mustprogress nounwind uwtable
define noalias noundef ptr @usrc_create(ptr noundef %0, ptr noundef %1, i32 noundef %2, ptr noundef %3) local_unnamed_addr #0 {
  %5 = alloca [1024 x i8], align 16
  %6 = alloca i64, align 8
  %7 = alloca [1024 x i8], align 16
  call void @llvm.lifetime.start.p0(i64 1024, ptr nonnull %7) #24
  %8 = icmp eq ptr %0, null
  br i1 %8, label %20, label %9

9:                                                ; preds = %4
  %10 = call ptr @strcpy(ptr noundef nonnull dereferenceable(1) %7, ptr noundef nonnull dereferenceable(1) %0) #24
  %11 = call i64 @strlen(ptr noundef nonnull dereferenceable(1) %7) #27
  %12 = getelementptr inbounds nuw i8, ptr %7, i64 %11
  %.not.i = icmp eq i64 %11, 0
  br i1 %.not.i, label %18, label %13

13:                                               ; preds = %9
  %14 = getelementptr inbounds i8, ptr %12, i64 -1
  %15 = load i8, ptr %14, align 1, !tbaa !15
  %.not19.i = icmp eq i8 %15, 47
  br i1 %.not19.i, label %18, label %16

16:                                               ; preds = %13
  %17 = getelementptr inbounds nuw i8, ptr %12, i64 1
  store i8 47, ptr %12, align 1, !tbaa !15
  br label %18

18:                                               ; preds = %16, %13, %9
  %.016.i = phi ptr [ %17, %16 ], [ %12, %13 ], [ %12, %9 ]
  %19 = call ptr @strcpy(ptr noundef nonnull dereferenceable(1) %.016.i, ptr noundef nonnull dereferenceable(1) %1) #24
  br label %20

20:                                               ; preds = %18, %4
  %.0.i = phi ptr [ %7, %18 ], [ %1, %4 ]
  %21 = call noalias ptr @fopen(ptr noundef %.0.i, ptr noundef nonnull @.str.41)
  %22 = icmp eq ptr %21, null
  br i1 %22, label %_ZL24usrc_createWithoutHeaderPKcS0_.exit.thread, label %26

_ZL24usrc_createWithoutHeaderPKcS0_.exit.thread:  ; preds = %20
  %23 = load ptr, ptr @stderr, align 8, !tbaa !16
  %24 = select i1 %8, ptr @.str.10, ptr %0
  %25 = call i32 (ptr, ptr, ...) @fprintf(ptr noundef %23, ptr noundef nonnull @.str.42, ptr noundef nonnull %24, ptr noundef %1) #28
  call void @llvm.lifetime.end.p0(i64 1024, ptr nonnull %7) #24
  br label %37

26:                                               ; preds = %20
  call void @llvm.lifetime.end.p0(i64 1024, ptr nonnull %7) #24
  %27 = call i32 (ptr, ptr, ...) @fprintf(ptr noundef nonnull %21, ptr noundef nonnull @.str.2, ptr noundef nonnull @.str, i32 noundef %2, ptr noundef nonnull @.str) #24
  %28 = icmp slt i32 %2, 2017
  br i1 %28, label %29, label %usrc_writeCopyrightHeader.exit

29:                                               ; preds = %26
  %30 = call i32 (ptr, ptr, ...) @fprintf(ptr noundef nonnull %21, ptr noundef nonnull @.str.3, ptr noundef nonnull @.str, ptr noundef nonnull @.str) #24
  br label %usrc_writeCopyrightHeader.exit

usrc_writeCopyrightHeader.exit:                   ; preds = %26, %29
  call void @llvm.lifetime.start.p0(i64 1024, ptr nonnull %5) #24
  call void @llvm.lifetime.start.p0(i64 8, ptr nonnull %6) #24
  %31 = call i64 @time(ptr noundef nonnull %6) #24
  %32 = call ptr @localtime(ptr noundef nonnull %6) #24
  %33 = icmp eq ptr %3, null
  br i1 %33, label %34, label %usrc_writeFileNameGeneratedBy.exit

34:                                               ; preds = %usrc_writeCopyrightHeader.exit
  %35 = call i64 @strftime(ptr noundef nonnull %5, i64 noundef 1024, ptr noundef nonnull @.str.5, ptr noundef %32) #24
  br label %usrc_writeFileNameGeneratedBy.exit

usrc_writeFileNameGeneratedBy.exit:               ; preds = %usrc_writeCopyrightHeader.exit, %34
  %.sink.i = phi ptr [ %5, %34 ], [ %3, %usrc_writeCopyrightHeader.exit ]
  %36 = call i32 (ptr, ptr, ...) @fprintf(ptr noundef nonnull %21, ptr noundef nonnull @.str.4, ptr noundef nonnull @.str, ptr noundef nonnull @.str, ptr noundef %1, ptr noundef nonnull @.str, ptr noundef nonnull @.str, ptr noundef nonnull %.sink.i) #24
  call void @llvm.lifetime.end.p0(i64 8, ptr nonnull %6) #24
  call void @llvm.lifetime.end.p0(i64 1024, ptr nonnull %5) #24
  br label %37

37:                                               ; preds = %_ZL24usrc_createWithoutHeaderPKcS0_.exit.thread, %usrc_writeFileNameGeneratedBy.exit
  ret ptr %21
}